; Function Attrs: null_pointer_is_valid sspstrong uwtable
define noundef zeroext i1 @wscbor_skip_if_errors(ptr noundef %0, ptr noundef %1, ptr noundef %2, ptr noundef readonly captures(none) %3) local_unnamed_addr #0 {
  %5 = getelementptr inbounds nuw i8, ptr %3, i64 24
  %6 = load ptr, ptr %5, align 8
  %7 = tail call i32 @wmem_list_count(ptr noundef %6)
  %8 = icmp ne i32 %7, 0
  br i1 %8, label %9, label %13

9:                                                ; preds = %4
  %10 = getelementptr inbounds nuw i8, ptr %3, i64 8
  %11 = load i32, ptr %10, align 8
  store i32 %11, ptr %2, align 4
  %12 = tail call fastcc zeroext i1 @wscbor_skip_next_item_internal(ptr noundef %0, ptr noundef %1, ptr noundef %2, ptr noundef null, i32 noundef 0)
  br label %13

13:                                               ; preds = %4, %9
  ret i1 %8
}